target datalayout = "e-m:e-p270:32:32-p271:32:32-p272:64:64-i64:64-i128:128-f80:128-n8:16:32:64-S128"
target triple = "x86_64-pc-linux-gnu"

%"class.std::__cxx11::basic_string" = type { %"struct.std::__cxx11::basic_string<char>::_Alloc_hider", i64, %union.anon }
%"struct.std::__cxx11::basic_string<char>::_Alloc_hider" = type { ptr }
%union.anon = type { i64, [8 x i8] }
%struct.aiString = type { i32, [1024 x i8] }
%"class.std::vector.8" = type { %"struct.std::_Vector_base.9" }
%"struct.std::_Vector_base.9" = type { %"struct.std::_Vector_base<Assimp::XFile::Mesh *, std::allocator<Assimp::XFile::Mesh *>>::_Vector_impl" }
%"struct.std::_Vector_base<Assimp::XFile::Mesh *, std::allocator<Assimp::XFile::Mesh *>>::_Vector_impl" = type { %"struct.std::_Vector_base<Assimp::XFile::Mesh *, std::allocator<Assimp::XFile::Mesh *>>::_Vector_impl_data" }
%"struct.std::_Vector_base<Assimp::XFile::Mesh *, std::allocator<Assimp::XFile::Mesh *>>::_Vector_impl_data" = type { ptr, ptr, ptr }
%struct.aiNode = type { %struct.aiString, %class.aiMatrix4x4t, ptr, i32, ptr, i32, ptr, ptr }
%class.aiMatrix4x4t = type { float, float, float, float, float, float, float, float, float, float, float, float, float, float, float, float }
%"struct.Assimp::XFile::Node" = type { %"class.std::__cxx11::basic_string", %class.aiMatrix4x4t, ptr, %"class.std::vector.23", %"class.std::vector.8" }
%"class.std::vector.23" = type { %"struct.std::_Vector_base.24" }
%"struct.std::_Vector_base.24" = type { %"struct.std::_Vector_base<Assimp::XFile::Node *, std::allocator<Assimp::XFile::Node *>>::_Vector_impl" }
%"struct.std::_Vector_base<Assimp::XFile::Node *, std::allocator<Assimp::XFile::Node *>>::_Vector_impl" = type { %"struct.std::_Vector_base<Assimp::XFile::Node *, std::allocator<Assimp::XFile::Node *>>::_Vector_impl_data" }
%"struct.std::_Vector_base<Assimp::XFile::Node *, std::allocator<Assimp::XFile::Node *>>::_Vector_impl_data" = type { ptr, ptr, ptr }
%"class.__gnu_cxx::__normal_iterator.118" = type { ptr }

; Function Attrs: mustprogress nounwind uwtable
define linkonce_odr hidden noundef nonnull align 8 dereferenceable(8) ptr @_ZNK9__gnu_cxx17__normal_iteratorIPKPN6Assimp5XFile4NodeESt6vectorIS4_SaIS4_EEE4baseEv(ptr noundef nonnull align 8 dereferenceable(8) %0) #2 comdat align 2 {
  %2 = alloca ptr, align 8
  store ptr %0, ptr %2, align 8
  %3 = load ptr, ptr %2, align 8
  %4 = getelementptr inbounds nuw %"class.__gnu_cxx::__normal_iterator.118", ptr %3, i32 0, i32 0
  ret ptr %4
}

; Function Attrs: mustprogress nounwind uwtable
define linkonce_odr hidden void @_ZN9__gnu_cxx17__normal_iteratorIPKPN6Assimp5XFile4NodeESt6vectorIS4_SaIS4_EEEC2ERKS6_(ptr noundef nonnull align 8 dereferenceable(8) %0, ptr noundef nonnull align 8 dereferenceable(8) %1) unnamed_addr #2 comdat align 2 {
  %3 = alloca ptr, align 8
  %4 = alloca ptr, align 8
  store ptr %0, ptr %3, align 8
  store ptr %1, ptr %4, align 8
  %5 = load ptr, ptr %3, align 8
  %6 = getelementptr inbounds nuw %"class.__gnu_cxx::__normal_iterator.118", ptr %5, i32 0, i32 0
  %7 = load ptr, ptr %4, align 8
  %8 = load ptr, ptr %7, align 8
  store ptr %8, ptr %6, align 8
  ret void
}

; Function Attrs: inlinehint mustprogress nounwind uwtable
define linkonce_odr hidden noundef zeroext i1 @_ZN9__gnu_cxxeqIPKPN6Assimp5XFile4NodeESt6vectorIS4_SaIS4_EEEEbRKNS_17__normal_iteratorIT_T0_EESF_(ptr noundef nonnull align 8 dereferenceable(8) %0, ptr noundef nonnull align 8 dereferenceable(8) %1) #5 comdat {
  %3 = alloca ptr, align 8
  %4 = alloca ptr, align 8
  store ptr %0, ptr %3, align 8
  store ptr %1, ptr %4, align 8
  %5 = load ptr, ptr %3, align 8
  %6 = call noundef nonnull align 8 dereferenceable(8) ptr @_ZNK9__gnu_cxx17__normal_iteratorIPKPN6Assimp5XFile4NodeESt6vectorIS4_SaIS4_EEE4baseEv(ptr noundef nonnull align 8 dereferenceable(8) %5) #17
  %7 = load ptr, ptr %6, align 8
  %8 = load ptr, ptr %4, align 8
  %9 = call noundef nonnull align 8 dereferenceable(8) ptr @_ZNK9__gnu_cxx17__normal_iteratorIPKPN6Assimp5XFile4NodeESt6vectorIS4_SaIS4_EEE4baseEv(ptr noundef nonnull align 8 dereferenceable(8) %8) #17
  %10 = load ptr, ptr %9, align 8
  %11 = icmp eq ptr %7, %10
  ret i1 %11
}

; Function Attrs: mustprogress nounwind uwtable
define linkonce_odr hidden ptr @_ZNKSt6vectorIPN6Assimp5XFile4NodeESaIS3_EE3endEv(ptr noundef nonnull align 8 dereferenceable(24) %0) #2 comdat align 2 {
  %2 = alloca %"class.__gnu_cxx::__normal_iterator.118", align 8
  %3 = alloca ptr, align 8
  store ptr %0, ptr %3, align 8
  %4 = load ptr, ptr %3, align 8
  %5 = getelementptr inbounds nuw %"struct.std::_Vector_base.24", ptr %4, i32 0, i32 0
  %6 = getelementptr inbounds nuw %"struct.std::_Vector_base<Assimp::XFile::Node *, std::allocator<Assimp::XFile::Node *>>::_Vector_impl_data", ptr %5, i32 0, i32 1
  call void @_ZN9__gnu_cxx17__normal_iteratorIPKPN6Assimp5XFile4NodeESt6vectorIS4_SaIS4_EEEC2ERKS6_(ptr noundef nonnull align 8 dereferenceable(8) %2, ptr noundef nonnull align 8 dereferenceable(8) %6) #17
  %7 = getelementptr inbounds nuw %"class.__gnu_cxx::__normal_iterator.118", ptr %2, i32 0, i32 0
  %8 = load ptr, ptr %7, align 8
  ret ptr %8
}

; Function Attrs: mustprogress nounwind uwtable
define linkonce_odr hidden ptr @_ZNKSt6vectorIPN6Assimp5XFile4NodeESaIS3_EE5beginEv(ptr noundef nonnull align 8 dereferenceable(24) %0) #2 comdat align 2 {
  %2 = alloca %"class.__gnu_cxx::__normal_iterator.118", align 8
  %3 = alloca ptr, align 8
  store ptr %0, ptr %3, align 8
  %4 = load ptr, ptr %3, align 8
  %5 = getelementptr inbounds nuw %"struct.std::_Vector_base.24", ptr %4, i32 0, i32 0
  %6 = getelementptr inbounds nuw %"struct.std::_Vector_base<Assimp::XFile::Node *, std::allocator<Assimp::XFile::Node *>>::_Vector_impl_data", ptr %5, i32 0, i32 0
  call void @_ZN9__gnu_cxx17__normal_iteratorIPKPN6Assimp5XFile4NodeESt6vectorIS4_SaIS4_EEEC2ERKS6_(ptr noundef nonnull align 8 dereferenceable(8) %2, ptr noundef nonnull align 8 dereferenceable(8) %6) #17
  %7 = getelementptr inbounds nuw %"class.__gnu_cxx::__normal_iterator.118", ptr %2, i32 0, i32 0
  %8 = load ptr, ptr %7, align 8
  ret ptr %8
}

; Function Attrs: mustprogress nounwind uwtable
define available_externally noundef ptr @_ZNKSt7__cxx1112basic_stringIcSt11char_traitsIcESaIcEE7_M_dataEv(ptr noundef nonnull align 8 dereferenceable(32) %0) #2 align 2 {
  %2 = alloca ptr, align 8
  store ptr %0, ptr %2, align 8
  %3 = load ptr, ptr %2, align 8
  %4 = getelementptr inbounds nuw %"class.std::__cxx11::basic_string", ptr %3, i32 0, i32 0
  %5 = getelementptr inbounds nuw %"struct.std::__cxx11::basic_string<char>::_Alloc_hider", ptr %4, i32 0, i32 0
  %6 = load ptr, ptr %5, align 8
  ret ptr %6
}

; Function Attrs: mustprogress nounwind uwtable
define linkonce_odr hidden noundef nonnull align 8 dereferenceable(8) ptr @_ZNKSt6vectorIPN6Assimp5XFile4NodeESaIS3_EEixEm(ptr noundef nonnull align 8 dereferenceable(24) %0, i64 noundef %1) #2 comdat align 2 {
  %3 = alloca ptr, align 8
  %4 = alloca i64, align 8
  store ptr %0, ptr %3, align 8
  store i64 %1, ptr %4, align 8
  %5 = load ptr, ptr %3, align 8
  %6 = getelementptr inbounds nuw %"struct.std::_Vector_base.24", ptr %5, i32 0, i32 0
  %7 = getelementptr inbounds nuw %"struct.std::_Vector_base<Assimp::XFile::Node *, std::allocator<Assimp::XFile::Node *>>::_Vector_impl_data", ptr %6, i32 0, i32 0
  %8 = load ptr, ptr %7, align 8
  %9 = load i64, ptr %4, align 8
  %10 = getelementptr inbounds nuw ptr, ptr %8, i64 %9
  ret ptr %10
}

; Function Attrs: mustprogress nounwind uwtable
define linkonce_odr hidden noundef i64 @_ZNKSt6vectorIPN6Assimp5XFile4NodeESaIS3_EE4sizeEv(ptr noundef nonnull align 8 dereferenceable(24) %0) #2 comdat align 2 {
  %2 = alloca ptr, align 8
  store ptr %0, ptr %2, align 8
  %3 = load ptr, ptr %2, align 8
  %4 = getelementptr inbounds nuw %"struct.std::_Vector_base.24", ptr %3, i32 0, i32 0
  %5 = getelementptr inbounds nuw %"struct.std::_Vector_base<Assimp::XFile::Node *, std::allocator<Assimp::XFile::Node *>>::_Vector_impl_data", ptr %4, i32 0, i32 1
  %6 = load ptr, ptr %5, align 8
  %7 = getelementptr inbounds nuw %"struct.std::_Vector_base.24", ptr %3, i32 0, i32 0
  %8 = getelementptr inbounds nuw %"struct.std::_Vector_base<Assimp::XFile::Node *, std::allocator<Assimp::XFile::Node *>>::_Vector_impl_data", ptr %7, i32 0, i32 0
  %9 = load ptr, ptr %8, align 8
  %10 = ptrtoint ptr %6 to i64
  %11 = ptrtoint ptr %9 to i64
  %12 = sub i64 %10, %11
  %13 = sdiv exact i64 %12, 8
  ret i64 %13
}

; Function Attrs: mustprogress nounwind uwtable
define linkonce_odr hidden noundef zeroext i1 @_ZNKSt6vectorIPN6Assimp5XFile4NodeESaIS3_EE5emptyEv(ptr noundef nonnull align 8 dereferenceable(24) %0) #2 comdat align 2 {
  %2 = alloca ptr, align 8
  %3 = alloca %"class.__gnu_cxx::__normal_iterator.118", align 8
  %4 = alloca %"class.__gnu_cxx::__normal_iterator.118", align 8
  store ptr %0, ptr %2, align 8
  %5 = load ptr, ptr %2, align 8
  call void @llvm.lifetime.start.p0(i64 8, ptr %3) #17
  %6 = call ptr @_ZNKSt6vectorIPN6Assimp5XFile4NodeESaIS3_EE5beginEv(ptr noundef nonnull align 8 dereferenceable(24) %5) #17
  %7 = getelementptr inbounds nuw %"class.__gnu_cxx::__normal_iterator.118", ptr %3, i32 0, i32 0
  store ptr %6, ptr %7, align 8
  call void @llvm.lifetime.start.p0(i64 8, ptr %4) #17
  %8 = call ptr @_ZNKSt6vectorIPN6Assimp5XFile4NodeESaIS3_EE3endEv(ptr noundef nonnull align 8 dereferenceable(24) %5) #17
  %9 = getelementptr inbounds nuw %"class.__gnu_cxx::__normal_iterator.118", ptr %4, i32 0, i32 0
  store ptr %8, ptr %9, align 8
  %10 = call noundef zeroext i1 @_ZN9__gnu_cxxeqIPKPN6Assimp5XFile4NodeESt6vectorIS4_SaIS4_EEEEbRKNS_17__normal_iteratorIT_T0_EESF_(ptr noundef nonnull align 8 dereferenceable(8) %3, ptr noundef nonnull align 8 dereferenceable(8) %4) #17
  call void @llvm.lifetime.end.p0(i64 8, ptr %4) #17
  call void @llvm.lifetime.end.p0(i64 8, ptr %3) #17
  ret i1 %10
}

; Function Attrs: mustprogress nounwind uwtable
define available_externally noundef ptr @_ZNKSt7__cxx1112basic_stringIcSt11char_traitsIcESaIcEE5c_strEv(ptr noundef nonnull align 8 dereferenceable(32) %0) #2 align 2 {
  %2 = alloca ptr, align 8
  store ptr %0, ptr %2, align 8
  %3 = load ptr, ptr %2, align 8
  %4 = call noundef ptr @_ZNKSt7__cxx1112basic_stringIcSt11char_traitsIcESaIcEE7_M_dataEv(ptr noundef nonnull align 8 dereferenceable(32) %3)
  ret ptr %4
}

; Function Attrs: mustprogress nounwind uwtable
define available_externally noundef i64 @_ZNKSt7__cxx1112basic_stringIcSt11char_traitsIcESaIcEE6lengthEv(ptr noundef nonnull align 8 dereferenceable(32) %0) #2 align 2 {
  %2 = alloca ptr, align 8
  store ptr %0, ptr %2, align 8
  %3 = load ptr, ptr %2, align 8
  %4 = getelementptr inbounds nuw %"class.std::__cxx11::basic_string", ptr %3, i32 0, i32 1
  %5 = load i64, ptr %4, align 8
  ret i64 %5
}

; Function Attrs: mustprogress uwtable
define hidden noundef ptr @_ZN6Assimp13XFileImporter11CreateNodesEP7aiSceneP6aiNodePKNS_5XFile4NodeE(ptr noundef nonnull align 8 dereferenceable(96) %0, ptr noundef %1, ptr noundef %2, ptr noundef %3) #0 align 2 personality ptr @__gxx_personality_v0 {
  %5 = alloca ptr, align 8
  %6 = alloca ptr, align 8
  %7 = alloca ptr, align 8
  %8 = alloca ptr, align 8
  %9 = alloca ptr, align 8
  %10 = alloca ptr, align 8
  %11 = alloca ptr, align 8
  %12 = alloca i32, align 4
  %13 = alloca i32, align 4
  store ptr %0, ptr %6, align 8
  store ptr %1, ptr %7, align 8
  store ptr %2, ptr %8, align 8
  store ptr %3, ptr %9, align 8
  %14 = load ptr, ptr %6, align 8
  %15 = load ptr, ptr %9, align 8
  %16 = icmp ne ptr %15, null
  br i1 %16, label %18, label %17

17:                                               ; preds = %4
  store ptr null, ptr %5, align 8
  br label %113

18:                                               ; preds = %4
  call void @llvm.lifetime.start.p0(i64 8, ptr %10) #17
  %19 = call noalias noundef nonnull ptr @_Znwm(i64 noundef 1144) #20
  invoke void @_ZN6aiNodeC1Ev(ptr noundef nonnull align 8 dereferenceable(1144) %19)
          to label %20 unwind label %87

20:                                               ; preds = %18
  store ptr %19, ptr %10, align 8
  %21 = load ptr, ptr %9, align 8
  %22 = getelementptr inbounds nuw %"struct.Assimp::XFile::Node", ptr %21, i32 0, i32 0
  %23 = call noundef i64 @_ZNKSt7__cxx1112basic_stringIcSt11char_traitsIcESaIcEE6lengthEv(ptr noundef nonnull align 8 dereferenceable(32) %22) #17
  %24 = trunc i64 %23 to i32
  %25 = load ptr, ptr %10, align 8
  %26 = getelementptr inbounds nuw %struct.aiNode, ptr %25, i32 0, i32 0
  %27 = getelementptr inbounds nuw %struct.aiString, ptr %26, i32 0, i32 0
  store i32 %24, ptr %27, align 8
  %28 = load ptr, ptr %8, align 8
  %29 = load ptr, ptr %10, align 8
  %30 = getelementptr inbounds nuw %struct.aiNode, ptr %29, i32 0, i32 2
  store ptr %28, ptr %30, align 8
  %31 = load ptr, ptr %10, align 8
  %32 = getelementptr inbounds nuw %struct.aiNode, ptr %31, i32 0, i32 0
  %33 = getelementptr inbounds nuw %struct.aiString, ptr %32, i32 0, i32 1
  %34 = getelementptr inbounds [1024 x i8], ptr %33, i64 0, i64 0
  %35 = load ptr, ptr %9, align 8
  %36 = getelementptr inbounds nuw %"struct.Assimp::XFile::Node", ptr %35, i32 0, i32 0
  %37 = call noundef ptr @_ZNKSt7__cxx1112basic_stringIcSt11char_traitsIcESaIcEE5c_strEv(ptr noundef nonnull align 8 dereferenceable(32) %36) #17
  %38 = load ptr, ptr %9, align 8
  %39 = getelementptr inbounds nuw %"struct.Assimp::XFile::Node", ptr %38, i32 0, i32 0
  %40 = call noundef i64 @_ZNKSt7__cxx1112basic_stringIcSt11char_traitsIcESaIcEE6lengthEv(ptr noundef nonnull align 8 dereferenceable(32) %39) #17
  call void @llvm.memcpy.p0.p0.i64(ptr align 4 %34, ptr align 1 %37, i64 %40, i1 false)
  %41 = load ptr, ptr %10, align 8
  %42 = getelementptr inbounds nuw %struct.aiNode, ptr %41, i32 0, i32 0
  %43 = getelementptr inbounds nuw %struct.aiString, ptr %42, i32 0, i32 1
  %44 = load ptr, ptr %10, align 8
  %45 = getelementptr inbounds nuw %struct.aiNode, ptr %44, i32 0, i32 0
  %46 = getelementptr inbounds nuw %struct.aiString, ptr %45, i32 0, i32 0
  %47 = load i32, ptr %46, align 8
  %48 = zext i32 %47 to i64
  %49 = getelementptr inbounds nuw [1024 x i8], ptr %43, i64 0, i64 %48
  store i8 0, ptr %49, align 1
  %50 = load ptr, ptr %9, align 8
  %51 = getelementptr inbounds nuw %"struct.Assimp::XFile::Node", ptr %50, i32 0, i32 1
  %52 = load ptr, ptr %10, align 8
  %53 = getelementptr inbounds nuw %struct.aiNode, ptr %52, i32 0, i32 1
  call void @llvm.memcpy.p0.p0.i64(ptr align 4 %53, ptr align 8 %51, i64 64, i1 false)
  %54 = load ptr, ptr %7, align 8
  %55 = load ptr, ptr %10, align 8
  %56 = load ptr, ptr %9, align 8
  %57 = getelementptr inbounds nuw %"struct.Assimp::XFile::Node", ptr %56, i32 0, i32 4
  call void @_ZN6Assimp13XFileImporter12CreateMeshesEP7aiSceneP6aiNodeRKSt6vectorIPNS_5XFile4MeshESaIS8_EE(ptr noundef nonnull align 8 dereferenceable(96) %14, ptr noundef %54, ptr noundef %55, ptr noundef nonnull align 8 dereferenceable(24) %57)
  %58 = load ptr, ptr %9, align 8
  %59 = getelementptr inbounds nuw %"struct.Assimp::XFile::Node", ptr %58, i32 0, i32 3
  %60 = call noundef zeroext i1 @_ZNKSt6vectorIPN6Assimp5XFile4NodeESaIS3_EE5emptyEv(ptr noundef nonnull align 8 dereferenceable(24) %59) #17
  br i1 %60, label %111, label %61

61:                                               ; preds = %20
  %62 = load ptr, ptr %9, align 8
  %63 = getelementptr inbounds nuw %"struct.Assimp::XFile::Node", ptr %62, i32 0, i32 3
  %64 = call noundef i64 @_ZNKSt6vectorIPN6Assimp5XFile4NodeESaIS3_EE4sizeEv(ptr noundef nonnull align 8 dereferenceable(24) %63) #17
  %65 = trunc i64 %64 to i32
  %66 = load ptr, ptr %10, align 8
  %67 = getelementptr inbounds nuw %struct.aiNode, ptr %66, i32 0, i32 3
  store i32 %65, ptr %67, align 8
  %68 = load ptr, ptr %10, align 8
  %69 = getelementptr inbounds nuw %struct.aiNode, ptr %68, i32 0, i32 3
  %70 = load i32, ptr %69, align 8
  %71 = zext i32 %70 to i64
  %72 = call { i64, i1 } @llvm.umul.with.overflow.i64(i64 %71, i64 8)
  %73 = extractvalue { i64, i1 } %72, 1
  %74 = extractvalue { i64, i1 } %72, 0
  %75 = select i1 %73, i64 -1, i64 %74
  %76 = call noalias noundef nonnull ptr @_Znam(i64 noundef %75) #20
  %77 = load ptr, ptr %10, align 8
  %78 = getelementptr inbounds nuw %struct.aiNode, ptr %77, i32 0, i32 4
  store ptr %76, ptr %78, align 8
  call void @llvm.lifetime.start.p0(i64 4, ptr %13) #17
  store i32 0, ptr %13, align 4
  br label %79

79:                                               ; preds = %107, %61
  %80 = load i32, ptr %13, align 4
  %81 = zext i32 %80 to i64
  %82 = load ptr, ptr %9, align 8
  %83 = getelementptr inbounds nuw %"struct.Assimp::XFile::Node", ptr %82, i32 0, i32 3
  %84 = call noundef i64 @_ZNKSt6vectorIPN6Assimp5XFile4NodeESaIS3_EE4sizeEv(ptr noundef nonnull align 8 dereferenceable(24) %83) #17
  %85 = icmp ult i64 %81, %84
  br i1 %85, label %91, label %86

86:                                               ; preds = %79
  call void @llvm.lifetime.end.p0(i64 4, ptr %13) #17
  br label %110

87:                                               ; preds = %18
  %88 = landingpad { ptr, i32 }
          cleanup
  %89 = extractvalue { ptr, i32 } %88, 0
  store ptr %89, ptr %11, align 8
  %90 = extractvalue { ptr, i32 } %88, 1
  store i32 %90, ptr %12, align 4
  call void @_ZdlPvm(ptr noundef %19, i64 noundef 1144) #21
  call void @llvm.lifetime.end.p0(i64 8, ptr %10) #17
  br label %115

91:                                               ; preds = %79
  %92 = load ptr, ptr %7, align 8
  %93 = load ptr, ptr %10, align 8
  %94 = load ptr, ptr %9, align 8
  %95 = getelementptr inbounds nuw %"struct.Assimp::XFile::Node", ptr %94, i32 0, i32 3
  %96 = load i32, ptr %13, align 4
  %97 = zext i32 %96 to i64
  %98 = call noundef nonnull align 8 dereferenceable(8) ptr @_ZNKSt6vectorIPN6Assimp5XFile4NodeESaIS3_EEixEm(ptr noundef nonnull align 8 dereferenceable(24) %95, i64 noundef %97) #17
  %99 = load ptr, ptr %98, align 8
  %100 = call noundef ptr @_ZN6Assimp13XFileImporter11CreateNodesEP7aiSceneP6aiNodePKNS_5XFile4NodeE(ptr noundef nonnull align 8 dereferenceable(96) %14, ptr noundef %92, ptr noundef %93, ptr noundef %99)
  %101 = load ptr, ptr %10, align 8
  %102 = getelementptr inbounds nuw %struct.aiNode, ptr %101, i32 0, i32 4
  %103 = load ptr, ptr %102, align 8
  %104 = load i32, ptr %13, align 4
  %105 = zext i32 %104 to i64
  %106 = getelementptr inbounds nuw ptr, ptr %103, i64 %105
  store ptr %100, ptr %106, align 8
  br label %107

107:                                              ; preds = %91
  %108 = load i32, ptr %13, align 4
  %109 = add i32 %108, 1
  store i32 %109, ptr %13, align 4
  br label %79, !llvm.loop !11

110:                                              ; preds = %86
  br label %111

111:                                              ; preds = %110, %20
  %112 = load ptr, ptr %10, align 8
  store ptr %112, ptr %5, align 8
  call void @llvm.lifetime.end.p0(i64 8, ptr %10) #17
  br label %113

113:                                              ; preds = %111, %17
  %114 = load ptr, ptr %5, align 8
  ret ptr %114

115:                                              ; preds = %87
  %116 = load ptr, ptr %11, align 8
  %117 = load i32, ptr %12, align 4
  %118 = insertvalue { ptr, i32 } poison, ptr %116, 0
  %119 = insertvalue { ptr, i32 } %118, i32 %117, 1
  resume { ptr, i32 } %119
}