; Function Attrs: mustprogress uwtable
define hidden noundef ptr @_ZN6Assimp13XFileImporter11CreateNodesEP7aiSceneP6aiNodePKNS_5XFile4NodeE(ptr noundef nonnull readnone align 8 captures(none) dereferenceable(96) %0, ptr noundef captures(none) %1, ptr noundef %2, ptr noundef readonly captures(address_is_null) %3) local_unnamed_addr #0 align 2 personality ptr @__gxx_personality_v0 {
  %.not = icmp eq ptr %3, null
  br i1 %.not, label %.loopexit, label %5

5:                                                ; preds = %4
  %6 = tail call noalias noundef nonnull dereferenceable(1144) ptr @_Znwm(i64 noundef 1144) #23
  invoke void @_ZN6aiNodeC1Ev(ptr noundef nonnull align 8 dereferenceable(1144) %6)
          to label %7 unwind label %33

7:                                                ; preds = %5
  %8 = getelementptr inbounds nuw i8, ptr %3, i64 8
  %9 = load i64, ptr %8, align 8
  %10 = trunc i64 %9 to i32
  store i32 %10, ptr %6, align 8
  %11 = getelementptr inbounds nuw i8, ptr %6, i64 1096
  store ptr %2, ptr %11, align 8
  %12 = getelementptr inbounds nuw i8, ptr %6, i64 4
  %13 = load ptr, ptr %3, align 8
  tail call void @llvm.memcpy.p0.p0.i64(ptr nonnull align 4 %12, ptr align 1 %13, i64 %9, i1 false)
  %14 = and i64 %9, 4294967295
  %15 = getelementptr inbounds nuw [1024 x i8], ptr %12, i64 0, i64 %14
  store i8 0, ptr %15, align 1
  %16 = getelementptr inbounds nuw i8, ptr %3, i64 32
  %17 = getelementptr inbounds nuw i8, ptr %6, i64 1028
  tail call void @llvm.memcpy.p0.p0.i64(ptr noundef nonnull align 4 dereferenceable(64) %17, ptr noundef nonnull align 8 dereferenceable(64) %16, i64 64, i1 false)
  %18 = getelementptr inbounds nuw i8, ptr %3, i64 128
  tail call void @_ZN6Assimp13XFileImporter12CreateMeshesEP7aiSceneP6aiNodeRKSt6vectorIPNS_5XFile4MeshESaIS8_EE(ptr nonnull align 8 poison, ptr noundef %1, ptr noundef nonnull %6, ptr noundef nonnull align 8 dereferenceable(24) %18)
  %19 = getelementptr inbounds nuw i8, ptr %3, i64 104
  %20 = load ptr, ptr %19, align 8
  %21 = getelementptr inbounds nuw i8, ptr %3, i64 112
  %22 = load ptr, ptr %21, align 8
  %23 = icmp eq ptr %20, %22
  br i1 %23, label %.loopexit, label %.lr.ph.preheader

.lr.ph.preheader:                                 ; preds = %7
  %24 = ptrtoint ptr %22 to i64
  %25 = ptrtoint ptr %20 to i64
  %26 = sub i64 %24, %25
  %27 = lshr exact i64 %26, 3
  %28 = trunc i64 %27 to i32
  %29 = getelementptr inbounds nuw i8, ptr %6, i64 1104
  store i32 %28, ptr %29, align 8
  %30 = and i64 %26, 34359738360
  %31 = tail call noalias noundef nonnull ptr @_Znam(i64 noundef %30) #23
  %32 = getelementptr inbounds nuw i8, ptr %6, i64 1112
  store ptr %31, ptr %32, align 8
  br label %.lr.ph

33:                                               ; preds = %5
  %34 = landingpad { ptr, i32 }
          cleanup
  tail call void @_ZdlPvm(ptr noundef nonnull %6, i64 noundef 1144) #21
  resume { ptr, i32 } %34

.lr.ph:                                           ; preds = %.lr.ph.preheader, %.lr.ph
  %35 = phi ptr [ %45, %.lr.ph ], [ %20, %.lr.ph.preheader ]
  %36 = phi i64 [ %43, %.lr.ph ], [ 0, %.lr.ph.preheader ]
  %.036 = phi i32 [ %42, %.lr.ph ], [ 0, %.lr.ph.preheader ]
  %37 = getelementptr inbounds nuw ptr, ptr %35, i64 %36
  %38 = load ptr, ptr %37, align 8
  %39 = tail call noundef ptr @_ZN6Assimp13XFileImporter11CreateNodesEP7aiSceneP6aiNodePKNS_5XFile4NodeE(ptr noundef nonnull align 8 dereferenceable(96) %0, ptr noundef %1, ptr noundef nonnull %6, ptr noundef %38)
  %40 = load ptr, ptr %32, align 8
  %41 = getelementptr inbounds nuw ptr, ptr %40, i64 %36
  store ptr %39, ptr %41, align 8
  %42 = add i32 %.036, 1
  %43 = zext i32 %42 to i64
  %44 = load ptr, ptr %21, align 8
  %45 = load ptr, ptr %19, align 8
  %46 = ptrtoint ptr %44 to i64
  %47 = ptrtoint ptr %45 to i64
  %48 = sub i64 %46, %47
  %49 = ashr exact i64 %48, 3
  %50 = icmp ugt i64 %49, %43
  br i1 %50, label %.lr.ph, label %.loopexit, !llvm.loop !11

.loopexit:                                        ; preds = %.lr.ph, %7, %4
  %.033 = phi ptr [ null, %4 ], [ %6, %7 ], [ %6, %.lr.ph ]
  ret ptr %.033
}